target datalayout = "e-m:e-p270:32:32-p271:32:32-p272:64:64-i64:64-i128:128-f80:128-n8:16:32:64-S128"
target triple = "x86_64-unknown-linux-gnu"

%struct.grpc_call_stats = type { %struct.grpc_transport_stream_stats, %struct.gpr_timespec }
%struct.grpc_transport_stream_stats = type { %struct.grpc_transport_one_way_stats, %struct.grpc_transport_one_way_stats, %struct.gpr_timespec }
%struct.grpc_transport_one_way_stats = type { i64, i64, i64 }
%struct.gpr_timespec = type { i64, i32, i32 }
%"class.grpc_core::CallContext" = type <{ %struct.grpc_call_stats, ptr, double, i8, [7 x i8] }>

; Function Attrs: mustprogress uwtable
define noundef ptr @_ZN9grpc_core11CallContext19server_call_contextEv(ptr noundef nonnull align 8 dereferenceable(97) %this) #4 align 2 {
entry:
  %this.addr = alloca ptr, align 8
  store ptr %this, ptr %this.addr, align 8
  %this1 = load ptr, ptr %this.addr, align 8
  %call_ = getelementptr inbounds %"class.grpc_core::CallContext", ptr %this1, i32 0, i32 1
  %0 = load ptr, ptr %call_, align 8
  %vtable = load ptr, ptr %0, align 8
  %vfn = getelementptr inbounds ptr, ptr %vtable, i64 19
  %1 = load ptr, ptr %vfn, align 8
  %call = call noundef ptr %1(ptr noundef nonnull align 8 dereferenceable(1096) %0)
  ret ptr %call
}