; Function Attrs: mustprogress uwtable
define noundef ptr @_ZN9grpc_core11CallContext19server_call_contextEv(ptr nocapture noundef nonnull readonly align 8 dereferenceable(97) %this) local_unnamed_addr #3 align 2 {
entry:
  %call_ = getelementptr inbounds i8, ptr %this, i64 80
  %0 = load ptr, ptr %call_, align 8
  %vtable = load ptr, ptr %0, align 8
  %vfn = getelementptr inbounds i8, ptr %vtable, i64 152
  %1 = load ptr, ptr %vfn, align 8
  %call = tail call noundef ptr %1(ptr noundef nonnull align 8 dereferenceable(1096) %0)
  ret ptr %call
}